target datalayout = "e-m:e-p270:32:32-p271:32:32-p272:64:64-i64:64-i128:128-f80:128-n8:16:32:64-S128"
target triple = "x86_64-pc-linux-gnu"

%struct.jit_State = type { %struct.GCtrace, ptr, ptr, ptr, ptr, ptr, ptr, i32, i32, i32, i8, i8, %struct.IRType1, i8, %struct.FoldState, ptr, i32, i32, i32, i32, i32, i32, i32, [1 x i32], [5 x %union.TValue], [3 x %union.TValue], ptr, i32, i32, i32, i32, ptr, ptr, i32, i32, i8, ptr, i32, i32, i16, [101 x i16], [258 x i32], [15 x i32], [16 x ptr], [64 x %struct.HotPenalty], i32, [16 x %struct.BPropEntry], i32, %struct.ScEvEntry, ptr, i32, i32, i32, ptr, i32, i32, ptr, ptr, ptr, i64, i64, %union.TValue, ptr, i32, i32 }
%struct.GCtrace = type { %struct.GCRef, i8, i8, i16, i32, i32, %struct.GCRef, ptr, i32, i32, ptr, ptr, %struct.GCRef, %struct.MRef, i32, i32, ptr, i32, i16, i16, i16, i16, i16, i16, i16, i8, i8, i8, i8 }
%struct.GCRef = type { i64 }
%struct.MRef = type { i64 }
%struct.IRType1 = type { i8 }
%struct.FoldState = type { %union.IRIns, [2 x %union.IRIns], [2 x %union.IRIns] }
%union.IRIns = type { %struct.GCRef }
%struct.HotPenalty = type { %struct.MRef, i16, i16 }
%struct.BPropEntry = type { i16, i16, i32 }
%struct.ScEvEntry = type { %struct.MRef, i16, i16, i16, i16, %struct.IRType1, i8 }
%union.TValue = type { i64 }
%struct.anon.0 = type { i32, %struct.IRType1, i8, i8, i8 }
%struct.GG_State = type { %struct.lua_State, %struct.global_State, %struct.jit_State, [64 x i16], [243 x ptr], [57 x i32] }
%struct.lua_State = type { %struct.GCRef, i8, i8, i8, i8, %struct.MRef, %struct.GCRef, ptr, ptr, %struct.MRef, %struct.MRef, %struct.GCRef, %struct.GCRef, ptr, i32 }
%struct.global_State = type { ptr, ptr, %struct.GCState, %struct.GCstr, i8, i8, i8, i8, %struct.StrInternState, i32, %struct.GCRef, %struct.SBuf, %union.TValue, %union.TValue, %struct.Node, %union.TValue, %struct.GCupval, i32, i32, ptr, ptr, ptr, i32, i32, %struct.GCRef, %struct.MRef, %struct.MRef, %struct.PRNGState, [39 x %struct.GCRef] }
%struct.GCState = type { i64, i64, i8, i8, i8, i8, i32, %struct.GCRef, %struct.MRef, %struct.GCRef, %struct.GCRef, %struct.GCRef, %struct.GCRef, i64, i64, i32, i32, %struct.MRef }
%struct.GCstr = type { %struct.GCRef, i8, i8, i8, i8, i32, i32, i32 }
%struct.StrInternState = type { ptr, i32, i32, i32, i8, i8, i8, i8, i64 }
%struct.SBuf = type { ptr, ptr, ptr, %struct.MRef }
%struct.Node = type { %union.TValue, %union.TValue, %struct.MRef }
%struct.GCupval = type { %struct.GCRef, i8, i8, i8, i8, %union.anon, %struct.MRef, i32 }
%union.anon = type { %struct.anon.3 }
%struct.anon.3 = type { %struct.GCRef, %struct.GCRef }
%struct.PRNGState = type { [4 x i64] }
%struct.GCcdata = type { %struct.GCRef, i8, i8, i16 }
%struct.CType = type { i32, i32, i16, i16, %struct.GCRef }
%struct.CTState = type { ptr, i32, i32, ptr, ptr, ptr, %struct.CCallback, [128 x i16] }
%struct.CCallback = type { [8 x %union.FPRCBArg], [8 x i64], ptr, ptr, ptr, i32, i32, i32 }
%union.FPRCBArg = type { double }

; Function Attrs: alwaysinline nounwind uwtable
define internal i32 @ctype_check(ptr noundef %0, i32 noundef %1) #6 {
  %3 = alloca ptr, align 8
  %4 = alloca i32, align 4
  store ptr %0, ptr %3, align 8, !tbaa !96
  store i32 %1, ptr %4, align 4, !tbaa !30
  %5 = load i32, ptr %4, align 4, !tbaa !30
  ret i32 %5
}

; Function Attrs: alwaysinline nounwind uwtable
define internal ptr @ctype_child(ptr noundef %0, ptr noundef %1) #6 {
  %3 = alloca ptr, align 8
  %4 = alloca ptr, align 8
  store ptr %0, ptr %3, align 8, !tbaa !96
  store ptr %1, ptr %4, align 8, !tbaa !75
  %5 = load ptr, ptr %3, align 8, !tbaa !96
  %6 = load ptr, ptr %4, align 8, !tbaa !75
  %7 = getelementptr inbounds nuw %struct.CType, ptr %6, i32 0, i32 0
  %8 = load i32, ptr %7, align 8, !tbaa !77
  %9 = and i32 %8, 65535
  %10 = call ptr @ctype_get(ptr noundef %5, i32 noundef %9)
  ret ptr %10
}

; Function Attrs: alwaysinline nounwind uwtable
define internal ptr @ctype_get(ptr noundef %0, i32 noundef %1) #6 {
  %3 = alloca ptr, align 8
  %4 = alloca i32, align 4
  store ptr %0, ptr %3, align 8, !tbaa !96
  store i32 %1, ptr %4, align 4, !tbaa !30
  %5 = load ptr, ptr %3, align 8, !tbaa !96
  %6 = getelementptr inbounds nuw %struct.CTState, ptr %5, i32 0, i32 0
  %7 = load ptr, ptr %6, align 8, !tbaa !99
  %8 = load ptr, ptr %3, align 8, !tbaa !96
  %9 = load i32, ptr %4, align 4, !tbaa !30
  %10 = call i32 @ctype_check(ptr noundef %8, i32 noundef %9)
  %11 = zext i32 %10 to i64
  %12 = getelementptr inbounds nuw %struct.CType, ptr %7, i64 %11
  ret ptr %12
}

; Function Attrs: alwaysinline nounwind uwtable
define internal ptr @ctype_raw(ptr noundef %0, i32 noundef %1) #6 {
  %3 = alloca ptr, align 8
  %4 = alloca i32, align 4
  %5 = alloca ptr, align 8
  store ptr %0, ptr %3, align 8, !tbaa !96
  store i32 %1, ptr %4, align 4, !tbaa !30
  call void @llvm.lifetime.start.p0(i64 8, ptr %5) #8
  %6 = load ptr, ptr %3, align 8, !tbaa !96
  %7 = load i32, ptr %4, align 4, !tbaa !30
  %8 = call ptr @ctype_get(ptr noundef %6, i32 noundef %7)
  store ptr %8, ptr %5, align 8, !tbaa !75
  br label %9

9:                                                ; preds = %15, %2
  %10 = load ptr, ptr %5, align 8, !tbaa !75
  %11 = getelementptr inbounds nuw %struct.CType, ptr %10, i32 0, i32 0
  %12 = load i32, ptr %11, align 8, !tbaa !77
  %13 = lshr i32 %12, 28
  %14 = icmp eq i32 %13, 8
  br i1 %14, label %15, label %19

15:                                               ; preds = %9
  %16 = load ptr, ptr %3, align 8, !tbaa !96
  %17 = load ptr, ptr %5, align 8, !tbaa !75
  %18 = call ptr @ctype_child(ptr noundef %16, ptr noundef %17)
  store ptr %18, ptr %5, align 8, !tbaa !75
  br label %9, !llvm.loop !98

19:                                               ; preds = %9
  %20 = load ptr, ptr %5, align 8, !tbaa !75
  call void @llvm.lifetime.end.p0(i64 8, ptr %5) #8
  ret ptr %20
}

; Function Attrs: nounwind uwtable
define internal i32 @fold_kfold_add_kgc(ptr noundef %0) #0 {
  %2 = alloca i32, align 4
  %3 = alloca ptr, align 8
  %4 = alloca ptr, align 8
  %5 = alloca i64, align 8
  %6 = alloca ptr, align 8
  %7 = alloca i32, align 4
  store ptr %0, ptr %3, align 8, !tbaa !4
  call void @llvm.lifetime.start.p0(i64 8, ptr %4) #8
  %8 = load ptr, ptr %3, align 8, !tbaa !4
  %9 = getelementptr inbounds nuw %struct.jit_State, ptr %8, i32 0, i32 14
  %10 = getelementptr inbounds nuw %struct.FoldState, ptr %9, i32 0, i32 1
  %11 = getelementptr inbounds [2 x %union.IRIns], ptr %10, i64 0, i64 1
  %12 = getelementptr inbounds nuw %struct.GCRef, ptr %11, i32 0, i32 0
  %13 = load i64, ptr %12, align 8, !tbaa !29
  %14 = inttoptr i64 %13 to ptr
  store ptr %14, ptr %4, align 8, !tbaa !62
  call void @llvm.lifetime.start.p0(i64 8, ptr %5) #8
  %15 = load ptr, ptr %3, align 8, !tbaa !4
  %16 = getelementptr inbounds nuw %struct.jit_State, ptr %15, i32 0, i32 14
  %17 = getelementptr inbounds nuw %struct.FoldState, ptr %16, i32 0, i32 2
  %18 = getelementptr inbounds [2 x %union.IRIns], ptr %17, i64 0, i64 1
  %19 = load i64, ptr %18, align 8, !tbaa !29
  store i64 %19, ptr %5, align 8, !tbaa !52
  %20 = load ptr, ptr %3, align 8, !tbaa !4
  %21 = getelementptr inbounds nuw %struct.jit_State, ptr %20, i32 0, i32 14
  %22 = getelementptr inbounds nuw %struct.FoldState, ptr %21, i32 0, i32 1
  %23 = getelementptr inbounds [2 x %union.IRIns], ptr %22, i64 0, i64 0
  %24 = getelementptr inbounds nuw %struct.anon.0, ptr %23, i32 0, i32 1
  %25 = getelementptr inbounds nuw %struct.IRType1, ptr %24, i32 0, i32 0
  %26 = load i8, ptr %25, align 4, !tbaa !29
  %27 = zext i8 %26 to i32
  %28 = and i32 %27, 31
  %29 = icmp eq i32 %28, 10
  br i1 %29, label %30, label %88

30:                                               ; preds = %1
  call void @llvm.lifetime.start.p0(i64 8, ptr %6) #8
  %31 = load ptr, ptr %3, align 8, !tbaa !4
  %32 = getelementptr inbounds i8, ptr %31, i64 -832
  %33 = getelementptr inbounds nuw %struct.GG_State, ptr %32, i32 0, i32 1
  %34 = getelementptr inbounds nuw %struct.global_State, ptr %33, i32 0, i32 26
  %35 = getelementptr inbounds nuw %struct.MRef, ptr %34, i32 0, i32 0
  %36 = load i64, ptr %35, align 8, !tbaa !64
  %37 = inttoptr i64 %36 to ptr
  %38 = load ptr, ptr %4, align 8, !tbaa !62
  %39 = getelementptr inbounds nuw %struct.GCcdata, ptr %38, i32 0, i32 3
  %40 = load i16, ptr %39, align 2, !tbaa !29
  %41 = zext i16 %40 to i32
  %42 = call ptr @ctype_raw(ptr noundef %37, i32 noundef %41)
  store ptr %42, ptr %6, align 8, !tbaa !75
  %43 = load ptr, ptr %6, align 8, !tbaa !75
  %44 = getelementptr inbounds nuw %struct.CType, ptr %43, i32 0, i32 0
  %45 = load i32, ptr %44, align 8, !tbaa !77
  %46 = lshr i32 %45, 28
  %47 = icmp eq i32 %46, 0
  br i1 %47, label %78, label %48

48:                                               ; preds = %30
  %49 = load ptr, ptr %6, align 8, !tbaa !75
  %50 = getelementptr inbounds nuw %struct.CType, ptr %49, i32 0, i32 0
  %51 = load i32, ptr %50, align 8, !tbaa !77
  %52 = lshr i32 %51, 28
  %53 = icmp eq i32 %52, 5
  br i1 %53, label %78, label %54

54:                                               ; preds = %48
  %55 = load ptr, ptr %6, align 8, !tbaa !75
  %56 = getelementptr inbounds nuw %struct.CType, ptr %55, i32 0, i32 0
  %57 = load i32, ptr %56, align 8, !tbaa !77
  %58 = lshr i32 %57, 28
  %59 = icmp eq i32 %58, 2
  br i1 %59, label %78, label %60

60:                                               ; preds = %54
  %61 = load ptr, ptr %6, align 8, !tbaa !75
  %62 = getelementptr inbounds nuw %struct.CType, ptr %61, i32 0, i32 0
  %63 = load i32, ptr %62, align 8, !tbaa !77
  %64 = lshr i32 %63, 28
  %65 = icmp eq i32 %64, 6
  br i1 %65, label %78, label %66

66:                                               ; preds = %60
  %67 = load ptr, ptr %6, align 8, !tbaa !75
  %68 = getelementptr inbounds nuw %struct.CType, ptr %67, i32 0, i32 0
  %69 = load i32, ptr %68, align 8, !tbaa !77
  %70 = and i32 %69, -201326592
  %71 = icmp eq i32 %70, 872415232
  br i1 %71, label %78, label %72

72:                                               ; preds = %66
  %73 = load ptr, ptr %6, align 8, !tbaa !75
  %74 = getelementptr inbounds nuw %struct.CType, ptr %73, i32 0, i32 0
  %75 = load i32, ptr %74, align 8, !tbaa !77
  %76 = and i32 %75, -134217728
  %77 = icmp eq i32 %76, 939524096
  br i1 %77, label %78, label %84

78:                                               ; preds = %72, %66, %60, %54, %48, %30
  %79 = load ptr, ptr %3, align 8, !tbaa !4
  %80 = load ptr, ptr %4, align 8, !tbaa !62
  %81 = load i64, ptr %5, align 8, !tbaa !52
  %82 = getelementptr inbounds i8, ptr %80, i64 %81
  %83 = call i32 @lj_ir_kptr_(ptr noundef %79, i32 noundef 26, ptr noundef %82)
  store i32 %83, ptr %2, align 4
  store i32 1, ptr %7, align 4
  br label %85

84:                                               ; preds = %72
  store i32 0, ptr %7, align 4
  br label %85

85:                                               ; preds = %84, %78
  call void @llvm.lifetime.end.p0(i64 8, ptr %6) #8
  %86 = load i32, ptr %7, align 4
  switch i32 %86, label %94 [
    i32 0, label %87
  ]

87:                                               ; preds = %85
  br label %88

88:                                               ; preds = %87, %1
  %89 = load ptr, ptr %3, align 8, !tbaa !4
  %90 = load ptr, ptr %4, align 8, !tbaa !62
  %91 = load i64, ptr %5, align 8, !tbaa !52
  %92 = getelementptr inbounds i8, ptr %90, i64 %91
  %93 = call i32 @lj_ir_kptr_(ptr noundef %89, i32 noundef 25, ptr noundef %92)
  store i32 %93, ptr %2, align 4
  store i32 1, ptr %7, align 4
  br label %94

94:                                               ; preds = %88, %85
  call void @llvm.lifetime.end.p0(i64 8, ptr %5) #8
  call void @llvm.lifetime.end.p0(i64 8, ptr %4) #8
  %95 = load i32, ptr %2, align 4
  ret i32 %95
}