; Function Attrs: nounwind uwtable
define internal i32 @fold_kfold_add_kgc(ptr noundef %0) #0 {
  %2 = getelementptr inbounds nuw i8, ptr %0, i64 200
  %3 = load i64, ptr %2, align 8, !tbaa !28
  %4 = inttoptr i64 %3 to ptr
  %5 = getelementptr inbounds nuw i8, ptr %0, i64 216
  %6 = load i64, ptr %5, align 8, !tbaa !28
  %7 = getelementptr inbounds nuw i8, ptr %0, i64 196
  %8 = load i8, ptr %7, align 4, !tbaa !28
  %9 = and i8 %8, 31
  %10 = icmp eq i8 %9, 10
  br i1 %10, label %11, label %.thread

11:                                               ; preds = %1
  %12 = getelementptr inbounds i8, ptr %0, i64 -352
  %13 = load i64, ptr %12, align 8, !tbaa !56
  %14 = inttoptr i64 %13 to ptr
  %15 = getelementptr inbounds nuw i8, ptr %4, i64 10
  %16 = load i16, ptr %15, align 2, !tbaa !28
  %17 = load ptr, ptr %14, align 8, !tbaa !64
  %18 = zext i16 %16 to i64
  br label %19

19:                                               ; preds = %19, %11
  %.pn = phi i64 [ %18, %11 ], [ %23, %19 ]
  %.0.i = getelementptr inbounds nuw %struct.CType, ptr %17, i64 %.pn
  %20 = load i32, ptr %.0.i, align 8, !tbaa !72
  %21 = icmp slt i32 %20, -1879048192
  %22 = and i32 %20, 65535
  %23 = zext nneg i32 %22 to i64
  br i1 %21, label %19, label %ctype_raw.exit, !llvm.loop !74

ctype_raw.exit:                                   ; preds = %19
  %24 = icmp ult i32 %20, 268435456
  %.mask = and i32 %20, -268435456
  %25 = icmp eq i32 %.mask, 1342177280
  %or.cond = or i1 %24, %25
  %26 = and i32 %20, -1342177280
  %27 = icmp eq i32 %26, 536870912
  %or.cond21 = or i1 %27, %or.cond
  %28 = and i32 %20, -201326592
  %29 = icmp eq i32 %28, 872415232
  %or.cond23 = or i1 %29, %or.cond21
  %30 = and i32 %20, -134217728
  %31 = icmp eq i32 %30, 939524096
  %or.cond25 = or i1 %31, %or.cond23
  br i1 %or.cond25, label %32, label %.thread

.thread:                                          ; preds = %ctype_raw.exit, %1
  br label %32

32:                                               ; preds = %ctype_raw.exit, %.thread
  %.sink = phi i32 [ 25, %.thread ], [ 26, %ctype_raw.exit ]
  %33 = getelementptr inbounds i8, ptr %4, i64 %6
  %34 = tail call i32 @lj_ir_kptr_(ptr noundef %0, i32 noundef %.sink, ptr noundef %33) #12
  ret i32 %34
}